target datalayout = "e-m:e-p270:32:32-p271:32:32-p272:64:64-i64:64-i128:128-f80:128-n8:16:32:64-S128"
target triple = "x86_64-pc-linux-gnu"

@stderr = external global ptr, align 8
@.str.4 = private unnamed_addr constant [58 x i8] c"integer overflow when trying to allocate %zu * %zu bytes\0A\00", align 1
@.str.5 = private unnamed_addr constant [49 x i8] c"out of memory when trying to allocate %zu bytes\0A\00", align 1

; Function Attrs: nounwind uwtable
define ptr @QuadTree_add(ptr noundef %0, ptr noundef %1, double noundef %2, i32 noundef %3) #0 {
  %5 = alloca ptr, align 8
  %6 = alloca ptr, align 8
  %7 = alloca ptr, align 8
  %8 = alloca double, align 8
  %9 = alloca i32, align 4
  store ptr %0, ptr %6, align 8, !tbaa !3
  store ptr %1, ptr %7, align 8, !tbaa !10
  store double %2, ptr %8, align 8, !tbaa !8
  store i32 %3, ptr %9, align 4, !tbaa !12
  %10 = load ptr, ptr %6, align 8, !tbaa !3
  %11 = icmp ne ptr %10, null
  br i1 %11, label %14, label %12

12:                                               ; preds = %4
  %13 = load ptr, ptr %6, align 8, !tbaa !3
  store ptr %13, ptr %5, align 8
  br label %20

14:                                               ; preds = %4
  %15 = load ptr, ptr %6, align 8, !tbaa !3
  %16 = load ptr, ptr %7, align 8, !tbaa !10
  %17 = load double, ptr %8, align 8, !tbaa !8
  %18 = load i32, ptr %9, align 4, !tbaa !12
  %19 = call ptr @QuadTree_add_internal(ptr noundef %15, ptr noundef %16, double noundef %17, i32 noundef %18, i32 noundef 0)
  store ptr %19, ptr %5, align 8
  br label %20

20:                                               ; preds = %14, %12
  %21 = load ptr, ptr %5, align 8
  ret ptr %21
}

; Function Attrs: inlinehint nounwind uwtable
define internal ptr @gv_calloc(i64 noundef %0, i64 noundef %1) #2 {
  %3 = alloca i64, align 8
  %4 = alloca i64, align 8
  %5 = alloca ptr, align 8
  store i64 %0, ptr %3, align 8, !tbaa !22
  store i64 %1, ptr %4, align 8, !tbaa !22
  %6 = load i64, ptr %3, align 8, !tbaa !22
  %7 = icmp ugt i64 %6, 0
  br i1 %7, label %8, label %18

8:                                                ; preds = %2
  %9 = load i64, ptr %3, align 8, !tbaa !22
  %10 = udiv i64 -1, %9
  %11 = load i64, ptr %4, align 8, !tbaa !22
  %12 = icmp ult i64 %10, %11
  br i1 %12, label %13, label %18

13:                                               ; preds = %8
  %14 = load ptr, ptr @stderr, align 8, !tbaa !24
  %15 = load i64, ptr %3, align 8, !tbaa !22
  %16 = load i64, ptr %4, align 8, !tbaa !22
  %17 = call i32 (ptr, ptr, ...) @fprintf(ptr noundef %14, ptr noundef @.str.4, i64 noundef %15, i64 noundef %16) #11
  call void @graphviz_exit(i32 noundef 1) #12
  unreachable

18:                                               ; preds = %8, %2
  call void @llvm.lifetime.start.p0(i64 8, ptr %5) #11
  %19 = load i64, ptr %3, align 8, !tbaa !22
  %20 = load i64, ptr %4, align 8, !tbaa !22
  %21 = call noalias ptr @calloc(i64 noundef %19, i64 noundef %20) #13
  store ptr %21, ptr %5, align 8, !tbaa !26
  %22 = load i64, ptr %3, align 8, !tbaa !22
  %23 = icmp ugt i64 %22, 0
  br i1 %23, label %24, label %36

24:                                               ; preds = %18
  %25 = load i64, ptr %4, align 8, !tbaa !22
  %26 = icmp ugt i64 %25, 0
  br i1 %26, label %27, label %36

27:                                               ; preds = %24
  %28 = load ptr, ptr %5, align 8, !tbaa !26
  %29 = icmp eq ptr %28, null
  br i1 %29, label %30, label %36

30:                                               ; preds = %27
  %31 = load ptr, ptr @stderr, align 8, !tbaa !24
  %32 = load i64, ptr %3, align 8, !tbaa !22
  %33 = load i64, ptr %4, align 8, !tbaa !22
  %34 = mul i64 %32, %33
  %35 = call i32 (ptr, ptr, ...) @fprintf(ptr noundef %31, ptr noundef @.str.5, i64 noundef %34) #11
  call void @graphviz_exit(i32 noundef 1) #12
  unreachable

36:                                               ; preds = %27, %24, %18
  %37 = load ptr, ptr %5, align 8, !tbaa !26
  call void @llvm.lifetime.end.p0(i64 8, ptr %5) #11
  ret ptr %37
}

; Function Attrs: nounwind uwtable
define ptr @QuadTree_new_from_point_list(i32 noundef %0, i32 noundef %1, i32 noundef %2, ptr noundef %3) #0 {
  %5 = alloca ptr, align 8
  %6 = alloca i32, align 4
  %7 = alloca i32, align 4
  %8 = alloca i32, align 4
  %9 = alloca ptr, align 8
  %10 = alloca ptr, align 8
  %11 = alloca ptr, align 8
  %12 = alloca ptr, align 8
  %13 = alloca double, align 8
  %14 = alloca ptr, align 8
  %15 = alloca i32, align 4
  %16 = alloca i32, align 4
  %17 = alloca i32, align 4
  store i32 %0, ptr %6, align 4, !tbaa !12
  store i32 %1, ptr %7, align 4, !tbaa !12
  store i32 %2, ptr %8, align 4, !tbaa !12
  store ptr %3, ptr %9, align 8, !tbaa !10
  call void @llvm.lifetime.start.p0(i64 8, ptr %10) #11
  call void @llvm.lifetime.start.p0(i64 8, ptr %11) #11
  call void @llvm.lifetime.start.p0(i64 8, ptr %12) #11
  call void @llvm.lifetime.start.p0(i64 8, ptr %13) #11
  call void @llvm.lifetime.start.p0(i64 8, ptr %14) #11
  store ptr null, ptr %14, align 8, !tbaa !3
  call void @llvm.lifetime.start.p0(i64 4, ptr %15) #11
  call void @llvm.lifetime.start.p0(i64 4, ptr %16) #11
  %18 = load i32, ptr %6, align 4, !tbaa !12
  %19 = sext i32 %18 to i64
  %20 = call ptr @gv_calloc(i64 noundef %19, i64 noundef 8)
  store ptr %20, ptr %10, align 8, !tbaa !10
  %21 = load i32, ptr %6, align 4, !tbaa !12
  %22 = sext i32 %21 to i64
  %23 = call ptr @gv_calloc(i64 noundef %22, i64 noundef 8)
  store ptr %23, ptr %11, align 8, !tbaa !10
  %24 = load i32, ptr %6, align 4, !tbaa !12
  %25 = sext i32 %24 to i64
  %26 = call ptr @gv_calloc(i64 noundef %25, i64 noundef 8)
  store ptr %26, ptr %12, align 8, !tbaa !10
  %27 = load ptr, ptr %10, align 8, !tbaa !10
  %28 = icmp ne ptr %27, null
  br i1 %28, label %29, label %35

29:                                               ; preds = %4
  %30 = load ptr, ptr %11, align 8, !tbaa !10
  %31 = icmp ne ptr %30, null
  br i1 %31, label %32, label %35

32:                                               ; preds = %29
  %33 = load ptr, ptr %12, align 8, !tbaa !10
  %34 = icmp ne ptr %33, null
  br i1 %34, label %39, label %35

35:                                               ; preds = %32, %29, %4
  %36 = load ptr, ptr %10, align 8, !tbaa !10
  call void @free(ptr noundef %36) #11
  %37 = load ptr, ptr %11, align 8, !tbaa !10
  call void @free(ptr noundef %37) #11
  %38 = load ptr, ptr %12, align 8, !tbaa !10
  call void @free(ptr noundef %38) #11
  store ptr null, ptr %5, align 8
  store i32 1, ptr %17, align 4
  br label %208

39:                                               ; preds = %32
  store i32 0, ptr %15, align 4, !tbaa !12
  br label %40

40:                                               ; preds = %54, %39
  %41 = load i32, ptr %15, align 4, !tbaa !12
  %42 = load i32, ptr %6, align 4, !tbaa !12
  %43 = icmp slt i32 %41, %42
  br i1 %43, label %44, label %57

44:                                               ; preds = %40
  %45 = load ptr, ptr %9, align 8, !tbaa !10
  %46 = load i32, ptr %15, align 4, !tbaa !12
  %47 = sext i32 %46 to i64
  %48 = getelementptr inbounds double, ptr %45, i64 %47
  %49 = load double, ptr %48, align 8, !tbaa !8
  %50 = load ptr, ptr %10, align 8, !tbaa !10
  %51 = load i32, ptr %15, align 4, !tbaa !12
  %52 = sext i32 %51 to i64
  %53 = getelementptr inbounds double, ptr %50, i64 %52
  store double %49, ptr %53, align 8, !tbaa !8
  br label %54

54:                                               ; preds = %44
  %55 = load i32, ptr %15, align 4, !tbaa !12
  %56 = add nsw i32 %55, 1
  store i32 %56, ptr %15, align 4, !tbaa !12
  br label %40, !llvm.loop !62

57:                                               ; preds = %40
  store i32 0, ptr %15, align 4, !tbaa !12
  br label %58

58:                                               ; preds = %72, %57
  %59 = load i32, ptr %15, align 4, !tbaa !12
  %60 = load i32, ptr %6, align 4, !tbaa !12
  %61 = icmp slt i32 %59, %60
  br i1 %61, label %62, label %75

62:                                               ; preds = %58
  %63 = load ptr, ptr %9, align 8, !tbaa !10
  %64 = load i32, ptr %15, align 4, !tbaa !12
  %65 = sext i32 %64 to i64
  %66 = getelementptr inbounds double, ptr %63, i64 %65
  %67 = load double, ptr %66, align 8, !tbaa !8
  %68 = load ptr, ptr %11, align 8, !tbaa !10
  %69 = load i32, ptr %15, align 4, !tbaa !12
  %70 = sext i32 %69 to i64
  %71 = getelementptr inbounds double, ptr %68, i64 %70
  store double %67, ptr %71, align 8, !tbaa !8
  br label %72

72:                                               ; preds = %62
  %73 = load i32, ptr %15, align 4, !tbaa !12
  %74 = add nsw i32 %73, 1
  store i32 %74, ptr %15, align 4, !tbaa !12
  br label %58, !llvm.loop !63

75:                                               ; preds = %58
  store i32 1, ptr %15, align 4, !tbaa !12
  br label %76

76:                                               ; preds = %128, %75
  %77 = load i32, ptr %15, align 4, !tbaa !12
  %78 = load i32, ptr %7, align 4, !tbaa !12
  %79 = icmp slt i32 %77, %78
  br i1 %79, label %80, label %131

80:                                               ; preds = %76
  store i32 0, ptr %16, align 4, !tbaa !12
  br label %81

81:                                               ; preds = %124, %80
  %82 = load i32, ptr %16, align 4, !tbaa !12
  %83 = load i32, ptr %6, align 4, !tbaa !12
  %84 = icmp slt i32 %82, %83
  br i1 %84, label %85, label %127

85:                                               ; preds = %81
  %86 = load ptr, ptr %10, align 8, !tbaa !10
  %87 = load i32, ptr %16, align 4, !tbaa !12
  %88 = sext i32 %87 to i64
  %89 = getelementptr inbounds double, ptr %86, i64 %88
  %90 = load double, ptr %89, align 8, !tbaa !8
  %91 = load ptr, ptr %9, align 8, !tbaa !10
  %92 = load i32, ptr %15, align 4, !tbaa !12
  %93 = load i32, ptr %6, align 4, !tbaa !12
  %94 = mul nsw i32 %92, %93
  %95 = load i32, ptr %16, align 4, !tbaa !12
  %96 = add nsw i32 %94, %95
  %97 = sext i32 %96 to i64
  %98 = getelementptr inbounds double, ptr %91, i64 %97
  %99 = load double, ptr %98, align 8, !tbaa !8
  %100 = call double @llvm.minnum.f64(double %90, double %99)
  %101 = load ptr, ptr %10, align 8, !tbaa !10
  %102 = load i32, ptr %16, align 4, !tbaa !12
  %103 = sext i32 %102 to i64
  %104 = getelementptr inbounds double, ptr %101, i64 %103
  store double %100, ptr %104, align 8, !tbaa !8
  %105 = load ptr, ptr %11, align 8, !tbaa !10
  %106 = load i32, ptr %16, align 4, !tbaa !12
  %107 = sext i32 %106 to i64
  %108 = getelementptr inbounds double, ptr %105, i64 %107
  %109 = load double, ptr %108, align 8, !tbaa !8
  %110 = load ptr, ptr %9, align 8, !tbaa !10
  %111 = load i32, ptr %15, align 4, !tbaa !12
  %112 = load i32, ptr %6, align 4, !tbaa !12
  %113 = mul nsw i32 %111, %112
  %114 = load i32, ptr %16, align 4, !tbaa !12
  %115 = add nsw i32 %113, %114
  %116 = sext i32 %115 to i64
  %117 = getelementptr inbounds double, ptr %110, i64 %116
  %118 = load double, ptr %117, align 8, !tbaa !8
  %119 = call double @llvm.maxnum.f64(double %109, double %118)
  %120 = load ptr, ptr %11, align 8, !tbaa !10
  %121 = load i32, ptr %16, align 4, !tbaa !12
  %122 = sext i32 %121 to i64
  %123 = getelementptr inbounds double, ptr %120, i64 %122
  store double %119, ptr %123, align 8, !tbaa !8
  br label %124

124:                                              ; preds = %85
  %125 = load i32, ptr %16, align 4, !tbaa !12
  %126 = add nsw i32 %125, 1
  store i32 %126, ptr %16, align 4, !tbaa !12
  br label %81, !llvm.loop !64

127:                                              ; preds = %81
  br label %128

128:                                              ; preds = %127
  %129 = load i32, ptr %15, align 4, !tbaa !12
  %130 = add nsw i32 %129, 1
  store i32 %130, ptr %15, align 4, !tbaa !12
  br label %76, !llvm.loop !65

131:                                              ; preds = %76
  %132 = load ptr, ptr %11, align 8, !tbaa !10
  %133 = getelementptr inbounds double, ptr %132, i64 0
  %134 = load double, ptr %133, align 8, !tbaa !8
  %135 = load ptr, ptr %10, align 8, !tbaa !10
  %136 = getelementptr inbounds double, ptr %135, i64 0
  %137 = load double, ptr %136, align 8, !tbaa !8
  %138 = fsub double %134, %137
  store double %138, ptr %13, align 8, !tbaa !8
  store i32 0, ptr %15, align 4, !tbaa !12
  br label %139

139:                                              ; preds = %173, %131
  %140 = load i32, ptr %15, align 4, !tbaa !12
  %141 = load i32, ptr %6, align 4, !tbaa !12
  %142 = icmp slt i32 %140, %141
  br i1 %142, label %143, label %176

143:                                              ; preds = %139
  %144 = load ptr, ptr %10, align 8, !tbaa !10
  %145 = load i32, ptr %15, align 4, !tbaa !12
  %146 = sext i32 %145 to i64
  %147 = getelementptr inbounds double, ptr %144, i64 %146
  %148 = load double, ptr %147, align 8, !tbaa !8
  %149 = load ptr, ptr %11, align 8, !tbaa !10
  %150 = load i32, ptr %15, align 4, !tbaa !12
  %151 = sext i32 %150 to i64
  %152 = getelementptr inbounds double, ptr %149, i64 %151
  %153 = load double, ptr %152, align 8, !tbaa !8
  %154 = fadd double %148, %153
  %155 = fmul double %154, 5.000000e-01
  %156 = load ptr, ptr %12, align 8, !tbaa !10
  %157 = load i32, ptr %15, align 4, !tbaa !12
  %158 = sext i32 %157 to i64
  %159 = getelementptr inbounds double, ptr %156, i64 %158
  store double %155, ptr %159, align 8, !tbaa !8
  %160 = load double, ptr %13, align 8, !tbaa !8
  %161 = load ptr, ptr %11, align 8, !tbaa !10
  %162 = load i32, ptr %15, align 4, !tbaa !12
  %163 = sext i32 %162 to i64
  %164 = getelementptr inbounds double, ptr %161, i64 %163
  %165 = load double, ptr %164, align 8, !tbaa !8
  %166 = load ptr, ptr %10, align 8, !tbaa !10
  %167 = load i32, ptr %15, align 4, !tbaa !12
  %168 = sext i32 %167 to i64
  %169 = getelementptr inbounds double, ptr %166, i64 %168
  %170 = load double, ptr %169, align 8, !tbaa !8
  %171 = fsub double %165, %170
  %172 = call double @llvm.maxnum.f64(double %160, double %171)
  store double %172, ptr %13, align 8, !tbaa !8
  br label %173

173:                                              ; preds = %143
  %174 = load i32, ptr %15, align 4, !tbaa !12
  %175 = add nsw i32 %174, 1
  store i32 %175, ptr %15, align 4, !tbaa !12
  br label %139, !llvm.loop !66

176:                                              ; preds = %139
  %177 = load double, ptr %13, align 8, !tbaa !8
  %178 = call double @llvm.maxnum.f64(double %177, double 1.000000e-05)
  store double %178, ptr %13, align 8, !tbaa !8
  %179 = load double, ptr %13, align 8, !tbaa !8
  %180 = fmul double %179, 5.200000e-01
  store double %180, ptr %13, align 8, !tbaa !8
  %181 = load i32, ptr %6, align 4, !tbaa !12
  %182 = load ptr, ptr %12, align 8, !tbaa !10
  %183 = load double, ptr %13, align 8, !tbaa !8
  %184 = load i32, ptr %8, align 4, !tbaa !12
  %185 = call ptr @QuadTree_new(i32 noundef %181, ptr noundef %182, double noundef %183, i32 noundef %184)
  store ptr %185, ptr %14, align 8, !tbaa !3
  store i32 0, ptr %15, align 4, !tbaa !12
  br label %186

186:                                              ; preds = %200, %176
  %187 = load i32, ptr %15, align 4, !tbaa !12
  %188 = load i32, ptr %7, align 4, !tbaa !12
  %189 = icmp slt i32 %187, %188
  br i1 %189, label %190, label %203

190:                                              ; preds = %186
  %191 = load ptr, ptr %14, align 8, !tbaa !3
  %192 = load ptr, ptr %9, align 8, !tbaa !10
  %193 = load i32, ptr %15, align 4, !tbaa !12
  %194 = load i32, ptr %6, align 4, !tbaa !12
  %195 = mul nsw i32 %193, %194
  %196 = sext i32 %195 to i64
  %197 = getelementptr inbounds double, ptr %192, i64 %196
  %198 = load i32, ptr %15, align 4, !tbaa !12
  %199 = call ptr @QuadTree_add(ptr noundef %191, ptr noundef %197, double noundef 1.000000e+00, i32 noundef %198)
  store ptr %199, ptr %14, align 8, !tbaa !3
  br label %200

200:                                              ; preds = %190
  %201 = load i32, ptr %15, align 4, !tbaa !12
  %202 = add nsw i32 %201, 1
  store i32 %202, ptr %15, align 4, !tbaa !12
  br label %186, !llvm.loop !67

203:                                              ; preds = %186
  %204 = load ptr, ptr %10, align 8, !tbaa !10
  call void @free(ptr noundef %204) #11
  %205 = load ptr, ptr %11, align 8, !tbaa !10
  call void @free(ptr noundef %205) #11
  %206 = load ptr, ptr %12, align 8, !tbaa !10
  call void @free(ptr noundef %206) #11
  %207 = load ptr, ptr %14, align 8, !tbaa !3
  store ptr %207, ptr %5, align 8
  store i32 1, ptr %17, align 4
  br label %208

208:                                              ; preds = %203, %35
  call void @llvm.lifetime.end.p0(i64 4, ptr %16) #11
  call void @llvm.lifetime.end.p0(i64 4, ptr %15) #11
  call void @llvm.lifetime.end.p0(i64 8, ptr %14) #11
  call void @llvm.lifetime.end.p0(i64 8, ptr %13) #11
  call void @llvm.lifetime.end.p0(i64 8, ptr %12) #11
  call void @llvm.lifetime.end.p0(i64 8, ptr %11) #11
  call void @llvm.lifetime.end.p0(i64 8, ptr %10) #11
  %209 = load ptr, ptr %5, align 8
  ret ptr %209
}