; Function Attrs: nounwind uwtable
define noalias noundef ptr @QuadTree_new_from_point_list(i32 noundef %0, i32 noundef %1, i32 noundef %2, ptr noundef readonly captures(none) %3) local_unnamed_addr #0 {
  %5 = sext i32 %0 to i64
  %.not.i = icmp eq i32 %0, 0
  br i1 %.not.i, label %gv_calloc.exit100.thread, label %6

6:                                                ; preds = %4
  %mul.ov.i = icmp slt i32 %0, 0
  br i1 %mul.ov.i, label %7, label %10

7:                                                ; preds = %6
  %8 = load ptr, ptr @stderr, align 8, !tbaa !16
  %9 = tail call i32 (ptr, ptr, ...) @fprintf(ptr noundef %8, ptr noundef nonnull @.str.4, i64 noundef %5, i64 noundef 8) #16
  tail call fastcc void @graphviz_exit() #17
  unreachable

10:                                               ; preds = %6
  %11 = tail call noalias ptr @calloc(i64 noundef %5, i64 noundef 8) #15
  %12 = icmp eq ptr %11, null
  br i1 %12, label %13, label %gv_calloc.exit

13:                                               ; preds = %10
  %14 = load ptr, ptr @stderr, align 8, !tbaa !16
  %15 = shl nuw nsw i64 %5, 3
  %16 = tail call i32 (ptr, ptr, ...) @fprintf(ptr noundef %14, ptr noundef nonnull @.str.5, i64 noundef %15) #16
  tail call fastcc void @graphviz_exit() #17
  unreachable

gv_calloc.exit:                                   ; preds = %10
  %17 = tail call noalias ptr @calloc(i64 noundef %5, i64 noundef 8) #15
  %18 = icmp eq ptr %17, null
  br i1 %18, label %19, label %gv_calloc.exit95

19:                                               ; preds = %gv_calloc.exit
  %20 = load ptr, ptr @stderr, align 8, !tbaa !16
  %21 = shl nuw nsw i64 %5, 3
  %22 = tail call i32 (ptr, ptr, ...) @fprintf(ptr noundef %20, ptr noundef nonnull @.str.5, i64 noundef %21) #16
  tail call fastcc void @graphviz_exit() #17
  unreachable

gv_calloc.exit95:                                 ; preds = %gv_calloc.exit
  %23 = tail call noalias ptr @calloc(i64 noundef %5, i64 noundef 8) #15
  %24 = icmp eq ptr %23, null
  br i1 %24, label %25, label %.lr.ph109.preheader

25:                                               ; preds = %gv_calloc.exit95
  %26 = load ptr, ptr @stderr, align 8, !tbaa !16
  %27 = shl nuw nsw i64 %5, 3
  %28 = tail call i32 (ptr, ptr, ...) @fprintf(ptr noundef %26, ptr noundef nonnull @.str.5, i64 noundef %27) #16
  tail call fastcc void @graphviz_exit() #17
  unreachable

gv_calloc.exit100.thread:                         ; preds = %4
  %29 = tail call noalias ptr @calloc(i64 noundef 0, i64 noundef 8) #15
  %30 = tail call noalias ptr @calloc(i64 noundef 0, i64 noundef 8) #15
  %31 = tail call noalias ptr @calloc(i64 noundef 0, i64 noundef 8) #15
  %32 = icmp ne ptr %29, null
  %33 = icmp ne ptr %30, null
  %or.cond141 = and i1 %33, %32
  %34 = icmp ne ptr %31, null
  %or.cond3142 = and i1 %or.cond141, %34
  br i1 %or.cond3142, label %._crit_edge113.thread, label %._crit_edge120

.lr.ph109.preheader:                              ; preds = %gv_calloc.exit95
  %35 = zext nneg i32 %0 to i64
  %36 = shl nuw nsw i64 %35, 3
  tail call void @llvm.memcpy.p0.p0.i64(ptr nonnull align 8 %11, ptr align 8 %3, i64 %36, i1 false), !tbaa !13
  %37 = zext nneg i32 %0 to i64
  %38 = shl nuw nsw i64 %37, 3
  tail call void @llvm.memcpy.p0.p0.i64(ptr nonnull align 8 %17, ptr align 8 %3, i64 %38, i1 false), !tbaa !13
  %39 = icmp sgt i32 %1, 1
  br i1 %39, label %.preheader.us.preheader, label %.lr.ph116.preheader

.preheader.us.preheader:                          ; preds = %.lr.ph109.preheader
  %40 = zext nneg i32 %0 to i64
  %wide.trip.count129 = zext nneg i32 %1 to i64
  br label %.preheader.us

.preheader.us:                                    ; preds = %.preheader.us.preheader, %._crit_edge.us
  %indvars.iv126 = phi i64 [ 1, %.preheader.us.preheader ], [ %indvars.iv.next127, %._crit_edge.us ]
  %41 = mul nuw nsw i64 %indvars.iv126, %40
  %invariant.gep = getelementptr inbounds nuw double, ptr %3, i64 %41
  br label %42

42:                                               ; preds = %.preheader.us, %42
  %indvars.iv = phi i64 [ 0, %.preheader.us ], [ %indvars.iv.next, %42 ]
  %43 = getelementptr inbounds nuw double, ptr %11, i64 %indvars.iv
  %44 = load double, ptr %43, align 8, !tbaa !13
  %gep = getelementptr inbounds nuw double, ptr %invariant.gep, i64 %indvars.iv
  %45 = load double, ptr %gep, align 8, !tbaa !13
  %46 = tail call double @llvm.minnum.f64(double %44, double %45)
  store double %46, ptr %43, align 8, !tbaa !13
  %47 = getelementptr inbounds nuw double, ptr %17, i64 %indvars.iv
  %48 = load double, ptr %47, align 8, !tbaa !13
  %49 = tail call double @llvm.maxnum.f64(double %48, double %45)
  store double %49, ptr %47, align 8, !tbaa !13
  %indvars.iv.next = add nuw nsw i64 %indvars.iv, 1
  %exitcond.not = icmp eq i64 %indvars.iv.next, %40
  br i1 %exitcond.not, label %._crit_edge.us, label %42, !llvm.loop !54

._crit_edge.us:                                   ; preds = %42
  %indvars.iv.next127 = add nuw nsw i64 %indvars.iv126, 1
  %exitcond130.not = icmp eq i64 %indvars.iv.next127, %wide.trip.count129
  br i1 %exitcond130.not, label %.lr.ph116.preheader, label %.preheader.us, !llvm.loop !55

._crit_edge113.thread:                            ; preds = %gv_calloc.exit100.thread
  %50 = load double, ptr %30, align 8, !tbaa !13
  %51 = load double, ptr %29, align 8, !tbaa !13
  %52 = fsub double %50, %51
  br label %._crit_edge

.lr.ph116.preheader:                              ; preds = %._crit_edge.us, %.lr.ph109.preheader
  %53 = load double, ptr %17, align 8, !tbaa !13
  %54 = load double, ptr %11, align 8, !tbaa !13
  %55 = fsub double %53, %54
  %wide.trip.count134 = zext nneg i32 %0 to i64
  br label %.lr.ph116

.lr.ph116:                                        ; preds = %.lr.ph116.preheader, %.lr.ph116
  %indvars.iv131 = phi i64 [ 0, %.lr.ph116.preheader ], [ %indvars.iv.next132, %.lr.ph116 ]
  %.084114 = phi double [ %55, %.lr.ph116.preheader ], [ %64, %.lr.ph116 ]
  %56 = getelementptr inbounds nuw double, ptr %11, i64 %indvars.iv131
  %57 = load double, ptr %56, align 8, !tbaa !13
  %58 = getelementptr inbounds nuw double, ptr %17, i64 %indvars.iv131
  %59 = load double, ptr %58, align 8, !tbaa !13
  %60 = fadd double %57, %59
  %61 = fmul double %60, 5.000000e-01
  %62 = getelementptr inbounds nuw double, ptr %23, i64 %indvars.iv131
  store double %61, ptr %62, align 8, !tbaa !13
  %63 = fsub double %59, %57
  %64 = tail call double @llvm.maxnum.f64(double %.084114, double %63)
  %indvars.iv.next132 = add nuw nsw i64 %indvars.iv131, 1
  %exitcond135.not = icmp eq i64 %indvars.iv.next132, %wide.trip.count134
  br i1 %exitcond135.not, label %._crit_edge, label %.lr.ph116, !llvm.loop !56

._crit_edge:                                      ; preds = %.lr.ph116, %._crit_edge113.thread
  %65 = phi ptr [ %31, %._crit_edge113.thread ], [ %23, %.lr.ph116 ]
  %66 = phi ptr [ %29, %._crit_edge113.thread ], [ %11, %.lr.ph116 ]
  %67 = phi ptr [ %30, %._crit_edge113.thread ], [ %17, %.lr.ph116 ]
  %.084.lcssa = phi double [ %52, %._crit_edge113.thread ], [ %64, %.lr.ph116 ]
  %68 = tail call double @llvm.maxnum.f64(double %.084.lcssa, double 1.000000e-05)
  %69 = fmul double %68, 5.200000e-01
  %70 = tail call ptr @QuadTree_new(i32 noundef %0, ptr noundef nonnull %65, double noundef %69, i32 noundef %2)
  %71 = icmp slt i32 %1, 1
  %.not.i101 = icmp eq ptr %70, null
  %or.cond = or i1 %71, %.not.i101
  br i1 %or.cond, label %._crit_edge120, label %QuadTree_add.exit.preheader

QuadTree_add.exit.preheader:                      ; preds = %._crit_edge
  %wide.trip.count139 = zext nneg i32 %1 to i64
  br label %QuadTree_add.exit

QuadTree_add.exit:                                ; preds = %QuadTree_add.exit.preheader, %QuadTree_add.exit
  %indvars.iv136 = phi i64 [ 0, %QuadTree_add.exit.preheader ], [ %indvars.iv.next137, %QuadTree_add.exit ]
  %72 = mul nsw i64 %indvars.iv136, %5
  %73 = getelementptr inbounds double, ptr %3, i64 %72
  %74 = trunc nuw nsw i64 %indvars.iv136 to i32
  %75 = tail call fastcc ptr @QuadTree_add_internal(ptr noundef nonnull %70, ptr noundef readonly %73, double noundef 1.000000e+00, i32 noundef %74, i32 noundef 0)
  %indvars.iv.next137 = add nuw nsw i64 %indvars.iv136, 1
  %exitcond140.not = icmp eq i64 %indvars.iv.next137, %wide.trip.count139
  br i1 %exitcond140.not, label %._crit_edge120, label %QuadTree_add.exit, !llvm.loop !57

._crit_edge120:                                   ; preds = %QuadTree_add.exit, %._crit_edge, %gv_calloc.exit100.thread
  %.sink148 = phi ptr [ %29, %gv_calloc.exit100.thread ], [ %66, %._crit_edge ], [ %66, %QuadTree_add.exit ]
  %.sink147 = phi ptr [ %30, %gv_calloc.exit100.thread ], [ %67, %._crit_edge ], [ %67, %QuadTree_add.exit ]
  %.sink = phi ptr [ %31, %gv_calloc.exit100.thread ], [ %65, %._crit_edge ], [ %65, %QuadTree_add.exit ]
  %.085 = phi ptr [ null, %gv_calloc.exit100.thread ], [ %70, %._crit_edge ], [ %70, %QuadTree_add.exit ]
  tail call void @free(ptr noundef %.sink148) #18
  tail call void @free(ptr noundef %.sink147) #18
  tail call void @free(ptr noundef %.sink) #18
  ret ptr %.085
}